target datalayout = "e-m:e-p270:32:32-p271:32:32-p272:64:64-i64:64-i128:128-f80:128-n8:16:32:64-S128"
target triple = "x86_64-pc-linux-gnu"

@ett_kafka_topics = internal global i32 0, align 4
@.str.669 = private unnamed_addr constant [7 x i8] c"Topics\00", align 1
@.str.698 = private unnamed_addr constant [24 x i8] c" (all committed topics)\00", align 1
@.str.699 = private unnamed_addr constant [13 x i8] c" (%u topics)\00", align 1

; Function Attrs: null_pointer_is_valid sspstrong uwtable
define internal i32 @dissect_kafka_offset_fetch_request_topics(ptr noundef %0, ptr noundef %1, ptr noundef %2, i32 noundef %3, i16 noundef signext %4) #0 {
  %6 = alloca ptr, align 8
  %7 = alloca ptr, align 8
  %8 = alloca ptr, align 8
  %9 = alloca i32, align 4
  %10 = alloca i16, align 2
  %11 = alloca ptr, align 8
  %12 = alloca ptr, align 8
  %13 = alloca i32, align 4
  store ptr %0, ptr %6, align 8
  store ptr %1, ptr %7, align 8
  store ptr %2, ptr %8, align 8
  store i32 %3, ptr %9, align 4
  store i16 %4, ptr %10, align 2
  call void @llvm.lifetime.start.p0(i64 8, ptr %11) #12
  call void @llvm.lifetime.start.p0(i64 8, ptr %12) #12
  call void @llvm.lifetime.start.p0(i64 4, ptr %13) #12
  store i32 0, ptr %13, align 4
  %14 = load ptr, ptr %8, align 8
  %15 = load ptr, ptr %6, align 8
  %16 = load i32, ptr %9, align 4
  %17 = load i32, ptr @ett_kafka_topics, align 4
  %18 = call ptr @proto_tree_add_subtree(ptr noundef %14, ptr noundef %15, i32 noundef %16, i32 noundef -1, i32 noundef %17, ptr noundef %11, ptr noundef @.str.669)
  store ptr %18, ptr %12, align 8
  %19 = load ptr, ptr %12, align 8
  %20 = load ptr, ptr %6, align 8
  %21 = load ptr, ptr %7, align 8
  %22 = load i32, ptr %9, align 4
  %23 = load i16, ptr %10, align 2
  %24 = sext i16 %23 to i32
  %25 = icmp sge i32 %24, 6
  %26 = zext i1 %25 to i32
  %27 = load i16, ptr %10, align 2
  %28 = call i32 @dissect_kafka_array(ptr noundef %19, ptr noundef %20, ptr noundef %21, i32 noundef %22, i32 noundef %26, i16 noundef signext %27, ptr noundef @dissect_kafka_offset_fetch_request_topic, ptr noundef %13)
  store i32 %28, ptr %9, align 4
  %29 = load ptr, ptr %11, align 8
  %30 = load ptr, ptr %6, align 8
  %31 = load i32, ptr %9, align 4
  call void @proto_item_set_end(ptr noundef %29, ptr noundef %30, i32 noundef %31)
  %32 = load i32, ptr %13, align 4
  %33 = icmp slt i32 %32, 0
  br i1 %33, label %34, label %36

34:                                               ; preds = %5
  %35 = load ptr, ptr %11, align 8
  call void (ptr, ptr, ...) @proto_item_append_text(ptr noundef %35, ptr noundef @.str.698)
  br label %39

36:                                               ; preds = %5
  %37 = load ptr, ptr %11, align 8
  %38 = load i32, ptr %13, align 4
  call void (ptr, ptr, ...) @proto_item_append_text(ptr noundef %37, ptr noundef @.str.699, i32 noundef %38)
  br label %39

39:                                               ; preds = %36, %34
  %40 = load i32, ptr %9, align 4
  call void @llvm.lifetime.end.p0(i64 4, ptr %13) #12
  call void @llvm.lifetime.end.p0(i64 8, ptr %12) #12
  call void @llvm.lifetime.end.p0(i64 8, ptr %11) #12
  ret i32 %40
}