; Function Attrs: null_pointer_is_valid sspstrong uwtable
define internal fastcc noundef i32 @dissect_kafka_offset_fetch_request_topics(ptr noundef %0, ptr noundef %1, ptr noundef %2, i32 noundef %3, i16 noundef signext %4) unnamed_addr #0 {
  %6 = alloca ptr, align 8
  %7 = alloca i32, align 4
  call void @llvm.lifetime.start.p0(i64 8, ptr nonnull %6) #9
  call void @llvm.lifetime.start.p0(i64 4, ptr nonnull %7) #9
  store i32 0, ptr %7, align 4
  %8 = load i32, ptr @ett_kafka_topics, align 4
  %9 = call ptr @proto_tree_add_subtree(ptr noundef %2, ptr noundef %0, i32 noundef %3, i32 noundef -1, i32 noundef %8, ptr noundef nonnull %6, ptr noundef nonnull @.str.669)
  %10 = icmp sgt i16 %4, 5
  %11 = zext i1 %10 to i32
  %12 = call fastcc i32 @dissect_kafka_array(ptr noundef %9, ptr noundef %0, ptr noundef %1, i32 noundef %3, i32 noundef %11, i16 noundef signext %4, ptr noundef nonnull @dissect_kafka_offset_fetch_request_topic, ptr noundef nonnull %7)
  %13 = load ptr, ptr %6, align 8
  call void @proto_item_set_end(ptr noundef %13, ptr noundef %0, i32 noundef %12)
  %14 = load i32, ptr %7, align 4
  %15 = icmp slt i32 %14, 0
  %16 = load ptr, ptr %6, align 8
  br i1 %15, label %17, label %18

17:                                               ; preds = %5
  call void (ptr, ptr, ...) @proto_item_append_text(ptr noundef %16, ptr noundef nonnull @.str.698)
  br label %19

18:                                               ; preds = %5
  call void (ptr, ptr, ...) @proto_item_append_text(ptr noundef %16, ptr noundef nonnull @.str.699, i32 noundef %14)
  br label %19

19:                                               ; preds = %18, %17
  call void @llvm.lifetime.end.p0(i64 4, ptr nonnull %7) #9
  call void @llvm.lifetime.end.p0(i64 8, ptr nonnull %6) #9
  ret i32 %12
}